; Function Attrs: mustprogress nofree norecurse nosync nounwind memory(argmem: readwrite) uwtable
define noundef nonnull align 4 dereferenceable(28) ptr @_ZN6icu_759ScriptSet5UnionERKS0_(ptr noundef nonnull returned align 4 dereferenceable(28) %this, ptr nocapture noundef nonnull readonly align 4 dereferenceable(28) %other) local_unnamed_addr #6 align 2 {
entry:
  br label %for.body

for.body:                                         ; preds = %entry, %for.body
  %indvars.iv = phi i64 [ 0, %entry ], [ %indvars.iv.next, %for.body ]
  %arrayidx = getelementptr inbounds [7 x i32], ptr %other, i64 0, i64 %indvars.iv
  %0 = load i32, ptr %arrayidx, align 4
  %arrayidx4 = getelementptr inbounds [7 x i32], ptr %this, i64 0, i64 %indvars.iv
  %1 = load i32, ptr %arrayidx4, align 4
  %or = or i32 %1, %0
  store i32 %or, ptr %arrayidx4, align 4
  %indvars.iv.next = add nuw nsw i64 %indvars.iv, 1
  %exitcond.not = icmp eq i64 %indvars.iv.next, 7
  br i1 %exitcond.not, label %for.end, label %for.body, !llvm.loop !6

for.end:                                          ; preds = %for.body
  ret ptr %this
}